target datalayout = "e-m:e-p270:32:32-p271:32:32-p272:64:64-i64:64-i128:128-f80:128-n8:16:32:64-S128"
target triple = "x86_64-pc-linux-gnu"

%struct.RsaKey = type { %struct.sp_int, %struct.sp_int, %struct.sp_int, %struct.sp_int, %struct.sp_int, %struct.sp_int, %struct.sp_int, %struct.sp_int, ptr, ptr, i32, i32, i32, ptr, i8 }
%struct.sp_int = type { i16, i16, [129 x i64] }

; Function Attrs: inlinehint nounwind uwtable
define internal void @ForceZero(ptr noundef %0, i32 noundef %1) #7 {
  %3 = alloca ptr, align 8
  %4 = alloca i32, align 4
  %5 = alloca ptr, align 8
  %6 = alloca ptr, align 8
  %7 = alloca i32, align 4
  store ptr %0, ptr %3, align 8, !tbaa !3
  store i32 %1, ptr %4, align 4, !tbaa !7
  call void @llvm.lifetime.start.p0(i64 8, ptr %5) #8
  %8 = load ptr, ptr %3, align 8, !tbaa !3
  store ptr %8, ptr %5, align 8, !tbaa !27
  call void @llvm.lifetime.start.p0(i64 8, ptr %6) #8
  call void @llvm.lifetime.start.p0(i64 4, ptr %7) #8
  %9 = load ptr, ptr %5, align 8, !tbaa !27
  %10 = ptrtoint ptr %9 to i64
  %11 = and i64 %10, 7
  %12 = sub i64 8, %11
  %13 = and i64 %12, 7
  %14 = trunc i64 %13 to i32
  store i32 %14, ptr %7, align 4, !tbaa !7
  %15 = load i32, ptr %4, align 4, !tbaa !7
  %16 = load i32, ptr %7, align 4, !tbaa !7
  %17 = icmp ult i32 %15, %16
  br i1 %17, label %18, label %20

18:                                               ; preds = %2
  %19 = load i32, ptr %4, align 4, !tbaa !7
  store i32 %19, ptr %7, align 4, !tbaa !7
  br label %20

20:                                               ; preds = %18, %2
  %21 = load i32, ptr %7, align 4, !tbaa !7
  %22 = load i32, ptr %4, align 4, !tbaa !7
  %23 = sub i32 %22, %21
  store i32 %23, ptr %4, align 4, !tbaa !7
  br label %24

24:                                               ; preds = %28, %20
  %25 = load i32, ptr %7, align 4, !tbaa !7
  %26 = add i32 %25, -1
  store i32 %26, ptr %7, align 4, !tbaa !7
  %27 = icmp ne i32 %25, 0
  br i1 %27, label %28, label %31

28:                                               ; preds = %24
  %29 = load ptr, ptr %5, align 8, !tbaa !27
  %30 = getelementptr inbounds nuw i8, ptr %29, i32 1
  store ptr %30, ptr %5, align 8, !tbaa !27
  store volatile i8 0, ptr %29, align 1, !tbaa !28
  br label %24, !llvm.loop !43

31:                                               ; preds = %24
  %32 = load ptr, ptr %5, align 8, !tbaa !27
  store ptr %32, ptr %6, align 8, !tbaa !44
  br label %33

33:                                               ; preds = %40, %31
  %34 = load i32, ptr %4, align 4, !tbaa !7
  %35 = zext i32 %34 to i64
  %36 = icmp uge i64 %35, 8
  br i1 %36, label %37, label %43

37:                                               ; preds = %33
  %38 = load ptr, ptr %6, align 8, !tbaa !44
  %39 = getelementptr inbounds nuw i64, ptr %38, i32 1
  store ptr %39, ptr %6, align 8, !tbaa !44
  store volatile i64 0, ptr %38, align 8, !tbaa !46
  br label %40

40:                                               ; preds = %37
  %41 = load i32, ptr %4, align 4, !tbaa !7
  %42 = sub i32 %41, 8
  store i32 %42, ptr %4, align 4, !tbaa !7
  br label %33, !llvm.loop !48

43:                                               ; preds = %33
  %44 = load ptr, ptr %6, align 8, !tbaa !44
  store ptr %44, ptr %5, align 8, !tbaa !27
  br label %45

45:                                               ; preds = %49, %43
  %46 = load i32, ptr %4, align 4, !tbaa !7
  %47 = add i32 %46, -1
  store i32 %47, ptr %4, align 4, !tbaa !7
  %48 = icmp ne i32 %46, 0
  br i1 %48, label %49, label %52

49:                                               ; preds = %45
  %50 = load ptr, ptr %5, align 8, !tbaa !27
  %51 = getelementptr inbounds nuw i8, ptr %50, i32 1
  store ptr %51, ptr %5, align 8, !tbaa !27
  store volatile i8 0, ptr %50, align 1, !tbaa !28
  br label %45, !llvm.loop !49

52:                                               ; preds = %45
  call void @llvm.lifetime.end.p0(i64 4, ptr %7) #8
  call void @llvm.lifetime.end.p0(i64 8, ptr %6) #8
  call void @llvm.lifetime.end.p0(i64 8, ptr %5) #8
  ret void
}

; Function Attrs: nounwind uwtable
define internal void @wc_RsaCleanup(ptr noundef %0) #0 {
  %2 = alloca ptr, align 8
  %3 = alloca ptr, align 8
  store ptr %0, ptr %2, align 8, !tbaa !11
  %4 = load ptr, ptr %2, align 8, !tbaa !11
  %5 = icmp ne ptr %4, null
  br i1 %5, label %6, label %56

6:                                                ; preds = %1
  %7 = load ptr, ptr %2, align 8, !tbaa !11
  %8 = getelementptr inbounds nuw %struct.RsaKey, ptr %7, i32 0, i32 9
  %9 = load ptr, ptr %8, align 8, !tbaa !22
  %10 = icmp ne ptr %9, null
  br i1 %10, label %11, label %33

11:                                               ; preds = %6
  %12 = load ptr, ptr %2, align 8, !tbaa !11
  %13 = getelementptr inbounds nuw %struct.RsaKey, ptr %12, i32 0, i32 12
  %14 = load i32, ptr %13, align 8, !tbaa !23
  %15 = icmp ugt i32 %14, 0
  br i1 %15, label %16, label %33

16:                                               ; preds = %11
  %17 = load ptr, ptr %2, align 8, !tbaa !11
  %18 = getelementptr inbounds nuw %struct.RsaKey, ptr %17, i32 0, i32 10
  %19 = load i32, ptr %18, align 8, !tbaa !13
  %20 = icmp eq i32 %19, 3
  br i1 %20, label %26, label %21

21:                                               ; preds = %16
  %22 = load ptr, ptr %2, align 8, !tbaa !11
  %23 = getelementptr inbounds nuw %struct.RsaKey, ptr %22, i32 0, i32 10
  %24 = load i32, ptr %23, align 8, !tbaa !13
  %25 = icmp eq i32 %24, 2
  br i1 %25, label %26, label %33

26:                                               ; preds = %21, %16
  %27 = load ptr, ptr %2, align 8, !tbaa !11
  %28 = getelementptr inbounds nuw %struct.RsaKey, ptr %27, i32 0, i32 9
  %29 = load ptr, ptr %28, align 8, !tbaa !22
  %30 = load ptr, ptr %2, align 8, !tbaa !11
  %31 = getelementptr inbounds nuw %struct.RsaKey, ptr %30, i32 0, i32 12
  %32 = load i32, ptr %31, align 8, !tbaa !23
  call void @ForceZero(ptr noundef %29, i32 noundef %32)
  br label %33

33:                                               ; preds = %26, %21, %11, %6
  %34 = load ptr, ptr %2, align 8, !tbaa !11
  %35 = getelementptr inbounds nuw %struct.RsaKey, ptr %34, i32 0, i32 14
  %36 = load i8, ptr %35, align 8, !tbaa !21
  %37 = icmp ne i8 %36, 0
  br i1 %37, label %38, label %51

38:                                               ; preds = %33
  br label %39

39:                                               ; preds = %38
  call void @llvm.lifetime.start.p0(i64 8, ptr %3) #8
  %40 = load ptr, ptr %2, align 8, !tbaa !11
  %41 = getelementptr inbounds nuw %struct.RsaKey, ptr %40, i32 0, i32 9
  %42 = load ptr, ptr %41, align 8, !tbaa !22
  store ptr %42, ptr %3, align 8, !tbaa !3
  %43 = load ptr, ptr %3, align 8, !tbaa !3
  %44 = icmp ne ptr %43, null
  br i1 %44, label %45, label %47

45:                                               ; preds = %39
  %46 = load ptr, ptr %3, align 8, !tbaa !3
  call void @wolfSSL_Free(ptr noundef %46)
  br label %47

47:                                               ; preds = %45, %39
  call void @llvm.lifetime.end.p0(i64 8, ptr %3) #8
  br label %48

48:                                               ; preds = %47
  %49 = load ptr, ptr %2, align 8, !tbaa !11
  %50 = getelementptr inbounds nuw %struct.RsaKey, ptr %49, i32 0, i32 14
  store i8 0, ptr %50, align 8, !tbaa !21
  br label %51

51:                                               ; preds = %48, %33
  %52 = load ptr, ptr %2, align 8, !tbaa !11
  %53 = getelementptr inbounds nuw %struct.RsaKey, ptr %52, i32 0, i32 9
  store ptr null, ptr %53, align 8, !tbaa !22
  %54 = load ptr, ptr %2, align 8, !tbaa !11
  %55 = getelementptr inbounds nuw %struct.RsaKey, ptr %54, i32 0, i32 12
  store i32 0, ptr %55, align 8, !tbaa !23
  br label %56

56:                                               ; preds = %51, %1
  ret void
}

; Function Attrs: nounwind uwtable
define i32 @wc_RsaFunction(ptr noundef %0, i32 noundef %1, ptr noundef %2, ptr noundef %3, i32 noundef %4, ptr noundef %5, ptr noundef %6) #0 {
  %8 = alloca ptr, align 8
  %9 = alloca i32, align 4
  %10 = alloca ptr, align 8
  %11 = alloca ptr, align 8
  %12 = alloca i32, align 4
  %13 = alloca ptr, align 8
  %14 = alloca ptr, align 8
  store ptr %0, ptr %8, align 8, !tbaa !27
  store i32 %1, ptr %9, align 4, !tbaa !7
  store ptr %2, ptr %10, align 8, !tbaa !27
  store ptr %3, ptr %11, align 8, !tbaa !9
  store i32 %4, ptr %12, align 4, !tbaa !7
  store ptr %5, ptr %13, align 8, !tbaa !11
  store ptr %6, ptr %14, align 8, !tbaa !29
  %15 = load ptr, ptr %8, align 8, !tbaa !27
  %16 = load i32, ptr %9, align 4, !tbaa !7
  %17 = load ptr, ptr %10, align 8, !tbaa !27
  %18 = load ptr, ptr %11, align 8, !tbaa !9
  %19 = load i32, ptr %12, align 4, !tbaa !7
  %20 = load ptr, ptr %13, align 8, !tbaa !11
  %21 = load ptr, ptr %14, align 8, !tbaa !29
  %22 = call i32 @wc_RsaFunction_ex(ptr noundef %15, i32 noundef %16, ptr noundef %17, ptr noundef %18, i32 noundef %19, ptr noundef %20, ptr noundef %21, i32 noundef 1)
  ret i32 %22
}

; Function Attrs: nounwind uwtable
define i32 @wc_RsaEncryptSize(ptr noundef %0) #0 {
  %2 = alloca i32, align 4
  %3 = alloca ptr, align 8
  %4 = alloca i32, align 4
  %5 = alloca i32, align 4
  store ptr %0, ptr %3, align 8, !tbaa !11
  call void @llvm.lifetime.start.p0(i64 4, ptr %4) #8
  %6 = load ptr, ptr %3, align 8, !tbaa !11
  %7 = icmp eq ptr %6, null
  br i1 %7, label %8, label %9

8:                                                ; preds = %1
  store i32 -173, ptr %2, align 4
  store i32 1, ptr %5, align 4
  br label %14

9:                                                ; preds = %1
  %10 = load ptr, ptr %3, align 8, !tbaa !11
  %11 = getelementptr inbounds nuw %struct.RsaKey, ptr %10, i32 0, i32 0
  %12 = call i32 @sp_unsigned_bin_size(ptr noundef %11)
  store i32 %12, ptr %4, align 4, !tbaa !7
  %13 = load i32, ptr %4, align 4, !tbaa !7
  store i32 %13, ptr %2, align 4
  store i32 1, ptr %5, align 4
  br label %14

14:                                               ; preds = %9, %8
  call void @llvm.lifetime.end.p0(i64 4, ptr %4) #8
  %15 = load i32, ptr %2, align 4
  ret i32 %15
}

; Function Attrs: nounwind uwtable
define internal i32 @RsaPublicEncryptEx(ptr noundef %0, i32 noundef %1, ptr noundef %2, i32 noundef %3, ptr noundef %4, i32 noundef %5, i8 noundef zeroext %6, i32 noundef %7, i32 noundef %8, i32 noundef %9, ptr noundef %10, i32 noundef %11, i32 noundef %12, ptr noundef %13) #0 {
  %15 = alloca i32, align 4
  %16 = alloca ptr, align 8
  %17 = alloca i32, align 4
  %18 = alloca ptr, align 8
  %19 = alloca i32, align 4
  %20 = alloca ptr, align 8
  %21 = alloca i32, align 4
  %22 = alloca i8, align 1
  %23 = alloca i32, align 4
  %24 = alloca i32, align 4
  %25 = alloca i32, align 4
  %26 = alloca ptr, align 8
  %27 = alloca i32, align 4
  %28 = alloca i32, align 4
  %29 = alloca ptr, align 8
  %30 = alloca i32, align 4
  %31 = alloca i32, align 4
  %32 = alloca i32, align 4
  %33 = alloca i32, align 4
  store ptr %0, ptr %16, align 8, !tbaa !27
  store i32 %1, ptr %17, align 4, !tbaa !7
  store ptr %2, ptr %18, align 8, !tbaa !27
  store i32 %3, ptr %19, align 4, !tbaa !7
  store ptr %4, ptr %20, align 8, !tbaa !11
  store i32 %5, ptr %21, align 4, !tbaa !7
  store i8 %6, ptr %22, align 1, !tbaa !28
  store i32 %7, ptr %23, align 4, !tbaa !7
  store i32 %8, ptr %24, align 4, !tbaa !7
  store i32 %9, ptr %25, align 4, !tbaa !7
  store ptr %10, ptr %26, align 8, !tbaa !27
  store i32 %11, ptr %27, align 4, !tbaa !7
  store i32 %12, ptr %28, align 4, !tbaa !7
  store ptr %13, ptr %29, align 8, !tbaa !29
  call void @llvm.lifetime.start.p0(i64 4, ptr %30) #8
  store i32 0, ptr %30, align 4, !tbaa !7
  call void @llvm.lifetime.start.p0(i64 4, ptr %31) #8
  call void @llvm.lifetime.start.p0(i64 4, ptr %32) #8
  %34 = load ptr, ptr %16, align 8, !tbaa !27
  %35 = icmp eq ptr %34, null
  br i1 %35, label %45, label %36

36:                                               ; preds = %14
  %37 = load i32, ptr %17, align 4, !tbaa !7
  %38 = icmp eq i32 %37, 0
  br i1 %38, label %45, label %39

39:                                               ; preds = %36
  %40 = load ptr, ptr %18, align 8, !tbaa !27
  %41 = icmp eq ptr %40, null
  br i1 %41, label %45, label %42

42:                                               ; preds = %39
  %43 = load ptr, ptr %20, align 8, !tbaa !11
  %44 = icmp eq ptr %43, null
  br i1 %44, label %45, label %46

45:                                               ; preds = %42, %39, %36, %14
  store i32 -173, ptr %15, align 4
  store i32 1, ptr %33, align 4
  br label %140

46:                                               ; preds = %42
  %47 = load ptr, ptr %20, align 8, !tbaa !11
  %48 = call i32 @wc_RsaEncryptSize(ptr noundef %47)
  store i32 %48, ptr %31, align 4, !tbaa !7
  %49 = load i32, ptr %31, align 4, !tbaa !7
  %50 = load i32, ptr %19, align 4, !tbaa !7
  %51 = icmp sgt i32 %49, %50
  br i1 %51, label %52, label %53

52:                                               ; preds = %46
  store i32 -131, ptr %15, align 4
  store i32 1, ptr %33, align 4
  br label %140

53:                                               ; preds = %46
  %54 = load i32, ptr %31, align 4, !tbaa !7
  %55 = icmp slt i32 %54, 11
  br i1 %55, label %59, label %56

56:                                               ; preds = %53
  %57 = load i32, ptr %31, align 4, !tbaa !7
  %58 = icmp sgt i32 %57, 512
  br i1 %58, label %59, label %60

59:                                               ; preds = %56, %53
  store i32 -234, ptr %15, align 4
  store i32 1, ptr %33, align 4
  br label %140

60:                                               ; preds = %56
  %61 = load i32, ptr %17, align 4, !tbaa !7
  %62 = load i32, ptr %31, align 4, !tbaa !7
  %63 = sub nsw i32 %62, 11
  %64 = icmp ugt i32 %61, %63
  br i1 %64, label %65, label %66

65:                                               ; preds = %60
  store i32 -131, ptr %15, align 4
  store i32 1, ptr %33, align 4
  br label %140

66:                                               ; preds = %60
  %67 = load ptr, ptr %20, align 8, !tbaa !11
  %68 = getelementptr inbounds nuw %struct.RsaKey, ptr %67, i32 0, i32 11
  %69 = load i32, ptr %68, align 4, !tbaa !19
  store i32 %69, ptr %32, align 4, !tbaa !7
  %70 = load i32, ptr %32, align 4, !tbaa !7
  switch i32 %70, label %129 [
    i32 0, label %71
    i32 1, label %71
    i32 2, label %99
    i32 3, label %125
  ]

71:                                               ; preds = %66, %66
  %72 = load ptr, ptr %20, align 8, !tbaa !11
  %73 = getelementptr inbounds nuw %struct.RsaKey, ptr %72, i32 0, i32 11
  store i32 1, ptr %73, align 4, !tbaa !19
  %74 = load ptr, ptr %16, align 8, !tbaa !27
  %75 = load i32, ptr %17, align 4, !tbaa !7
  %76 = load ptr, ptr %18, align 8, !tbaa !27
  %77 = load i32, ptr %31, align 4, !tbaa !7
  %78 = load i8, ptr %22, align 1, !tbaa !28
  %79 = load ptr, ptr %29, align 8, !tbaa !29
  %80 = load i32, ptr %23, align 4, !tbaa !7
  %81 = load i32, ptr %24, align 4, !tbaa !7
  %82 = load i32, ptr %25, align 4, !tbaa !7
  %83 = load ptr, ptr %26, align 8, !tbaa !27
  %84 = load i32, ptr %27, align 4, !tbaa !7
  %85 = load i32, ptr %28, align 4, !tbaa !7
  %86 = load ptr, ptr %20, align 8, !tbaa !11
  %87 = getelementptr inbounds nuw %struct.RsaKey, ptr %86, i32 0, i32 0
  %88 = call i32 @sp_count_bits(ptr noundef %87)
  %89 = load ptr, ptr %20, align 8, !tbaa !11
  %90 = getelementptr inbounds nuw %struct.RsaKey, ptr %89, i32 0, i32 8
  %91 = load ptr, ptr %90, align 8, !tbaa !20
  %92 = call i32 @wc_RsaPad_ex(ptr noundef %74, i32 noundef %75, ptr noundef %76, i32 noundef %77, i8 noundef zeroext %78, ptr noundef %79, i32 noundef %80, i32 noundef %81, i32 noundef %82, ptr noundef %83, i32 noundef %84, i32 noundef %85, i32 noundef %88, ptr noundef %91)
  store i32 %92, ptr %30, align 4, !tbaa !7
  %93 = load i32, ptr %30, align 4, !tbaa !7
  %94 = icmp slt i32 %93, 0
  br i1 %94, label %95, label %96

95:                                               ; preds = %71
  br label %130

96:                                               ; preds = %71
  %97 = load ptr, ptr %20, align 8, !tbaa !11
  %98 = getelementptr inbounds nuw %struct.RsaKey, ptr %97, i32 0, i32 11
  store i32 2, ptr %98, align 4, !tbaa !19
  br label %99

99:                                               ; preds = %66, %96
  %100 = load i32, ptr %19, align 4, !tbaa !7
  %101 = load ptr, ptr %20, align 8, !tbaa !11
  %102 = getelementptr inbounds nuw %struct.RsaKey, ptr %101, i32 0, i32 12
  store i32 %100, ptr %102, align 8, !tbaa !23
  %103 = load ptr, ptr %18, align 8, !tbaa !27
  %104 = load i32, ptr %31, align 4, !tbaa !7
  %105 = load ptr, ptr %18, align 8, !tbaa !27
  %106 = load ptr, ptr %20, align 8, !tbaa !11
  %107 = getelementptr inbounds nuw %struct.RsaKey, ptr %106, i32 0, i32 12
  %108 = load i32, ptr %21, align 4, !tbaa !7
  %109 = load ptr, ptr %20, align 8, !tbaa !11
  %110 = load ptr, ptr %29, align 8, !tbaa !29
  %111 = call i32 @wc_RsaFunction(ptr noundef %103, i32 noundef %104, ptr noundef %105, ptr noundef %107, i32 noundef %108, ptr noundef %109, ptr noundef %110)
  store i32 %111, ptr %30, align 4, !tbaa !7
  %112 = load i32, ptr %30, align 4, !tbaa !7
  %113 = icmp sge i32 %112, 0
  br i1 %113, label %117, label %114

114:                                              ; preds = %99
  %115 = load i32, ptr %30, align 4, !tbaa !7
  %116 = icmp eq i32 %115, -108
  br i1 %116, label %117, label %120

117:                                              ; preds = %114, %99
  %118 = load ptr, ptr %20, align 8, !tbaa !11
  %119 = getelementptr inbounds nuw %struct.RsaKey, ptr %118, i32 0, i32 11
  store i32 3, ptr %119, align 4, !tbaa !19
  br label %120

120:                                              ; preds = %117, %114
  %121 = load i32, ptr %30, align 4, !tbaa !7
  %122 = icmp slt i32 %121, 0
  br i1 %122, label %123, label %124

123:                                              ; preds = %120
  br label %130

124:                                              ; preds = %120
  br label %125

125:                                              ; preds = %66, %124
  %126 = load ptr, ptr %20, align 8, !tbaa !11
  %127 = getelementptr inbounds nuw %struct.RsaKey, ptr %126, i32 0, i32 12
  %128 = load i32, ptr %127, align 8, !tbaa !23
  store i32 %128, ptr %30, align 4, !tbaa !7
  br label %130

129:                                              ; preds = %66
  store i32 -192, ptr %30, align 4, !tbaa !7
  br label %130

130:                                              ; preds = %129, %125, %123, %95
  %131 = load i32, ptr %30, align 4, !tbaa !7
  %132 = icmp eq i32 %131, -108
  br i1 %132, label %133, label %135

133:                                              ; preds = %130
  %134 = load i32, ptr %30, align 4, !tbaa !7
  store i32 %134, ptr %15, align 4
  store i32 1, ptr %33, align 4
  br label %140

135:                                              ; preds = %130
  %136 = load ptr, ptr %20, align 8, !tbaa !11
  %137 = getelementptr inbounds nuw %struct.RsaKey, ptr %136, i32 0, i32 11
  store i32 0, ptr %137, align 4, !tbaa !19
  %138 = load ptr, ptr %20, align 8, !tbaa !11
  call void @wc_RsaCleanup(ptr noundef %138)
  %139 = load i32, ptr %30, align 4, !tbaa !7
  store i32 %139, ptr %15, align 4
  store i32 1, ptr %33, align 4
  br label %140

140:                                              ; preds = %135, %133, %65, %59, %52, %45
  call void @llvm.lifetime.end.p0(i64 4, ptr %32) #8
  call void @llvm.lifetime.end.p0(i64 4, ptr %31) #8
  call void @llvm.lifetime.end.p0(i64 4, ptr %30) #8
  %141 = load i32, ptr %15, align 4
  ret i32 %141
}