; Function Attrs: nounwind uwtable
define internal fastcc i32 @RsaPublicEncryptEx(ptr noundef captures(address_is_null) %0, i32 noundef %1, ptr noundef %2, i32 noundef %3, ptr noundef %4, i32 noundef range(i32 0, 3) %5, i8 noundef zeroext range(i8 1, 3) %6, i32 noundef %7, i32 noundef %8, i32 noundef %9, ptr noundef %10, i32 noundef %11, i32 noundef %12, ptr noundef %13) unnamed_addr #0 {
  %15 = icmp eq ptr %0, null
  %16 = icmp eq i32 %1, 0
  %or.cond = or i1 %15, %16
  %17 = icmp eq ptr %2, null
  %or.cond3 = or i1 %or.cond, %17
  %18 = icmp eq ptr %4, null
  %or.cond5 = or i1 %or.cond3, %18
  br i1 %or.cond5, label %75, label %wc_RsaEncryptSize.exit

wc_RsaEncryptSize.exit:                           ; preds = %14
  %19 = tail call i32 @sp_unsigned_bin_size(ptr noundef nonnull %4) #12
  %20 = icmp sgt i32 %19, %3
  br i1 %20, label %75, label %21

21:                                               ; preds = %wc_RsaEncryptSize.exit
  %22 = add i32 %19, -513
  %or.cond7 = icmp ult i32 %22, -502
  br i1 %or.cond7, label %75, label %23

23:                                               ; preds = %21
  %24 = add nsw i32 %19, -11
  %25 = icmp ugt i32 %1, %24
  br i1 %25, label %75, label %26

26:                                               ; preds = %23
  %27 = getelementptr inbounds nuw i8, ptr %4, i64 8340
  %28 = load i32, ptr %27, align 4, !tbaa !39
  switch i32 %28, label %.thread67 [
    i32 0, label %29
    i32 1, label %29
    i32 2, label %34
    i32 3, label %41
  ]

29:                                               ; preds = %26, %26
  store i32 1, ptr %27, align 4, !tbaa !39
  %30 = tail call i32 @sp_count_bits(ptr noundef nonnull %4) #12
  %31 = tail call i32 @wc_RsaPad_ex(ptr noundef nonnull %0, i32 noundef %1, ptr noundef nonnull %2, i32 noundef %19, i8 noundef zeroext %6, ptr noundef %13, i32 noundef %7, i32 noundef %8, i32 noundef %9, ptr noundef %10, i32 noundef %11, i32 noundef %12, i32 noundef %30, ptr poison)
  %32 = icmp slt i32 %31, 0
  br i1 %32, label %.thread, label %33

33:                                               ; preds = %29
  store i32 2, ptr %27, align 4, !tbaa !39
  br label %34

34:                                               ; preds = %33, %26
  %35 = getelementptr inbounds nuw i8, ptr %4, i64 8344
  store i32 %3, ptr %35, align 8, !tbaa !19
  %36 = tail call fastcc i32 @wc_RsaFunction_ex(ptr noundef nonnull %2, i32 noundef %19, ptr noundef nonnull %2, ptr noundef nonnull %35, i32 noundef %5, ptr noundef nonnull %4, ptr noundef %13, i32 noundef 1)
  %37 = icmp sgt i32 %36, -1
  %38 = icmp eq i32 %36, -108
  %or.cond9 = or i1 %37, %38
  br i1 %or.cond9, label %39, label %.thread

39:                                               ; preds = %34
  store i32 3, ptr %27, align 4, !tbaa !39
  %40 = icmp slt i32 %36, 0
  br i1 %40, label %.thread, label %41

41:                                               ; preds = %39, %26
  %42 = getelementptr inbounds nuw i8, ptr %4, i64 8344
  %43 = load i32, ptr %42, align 8, !tbaa !19
  br label %.thread

.thread:                                          ; preds = %34, %39, %29, %41
  %.058 = phi i32 [ %43, %41 ], [ %36, %39 ], [ %31, %29 ], [ %36, %34 ]
  %44 = icmp eq i32 %.058, -108
  br i1 %44, label %75, label %.thread67

.thread67:                                        ; preds = %26, %.thread
  %.05869 = phi i32 [ %.058, %.thread ], [ -192, %26 ]
  store i32 0, ptr %27, align 4, !tbaa !39
  %45 = getelementptr inbounds nuw i8, ptr %4, i64 8328
  %46 = load ptr, ptr %45, align 8, !tbaa !16
  %.not.i = icmp eq ptr %46, null
  br i1 %.not.i, label %ForceZero.exit.i, label %47

47:                                               ; preds = %.thread67
  %48 = getelementptr inbounds nuw i8, ptr %4, i64 8344
  %49 = load i32, ptr %48, align 8, !tbaa !19
  %.not16.i = icmp eq i32 %49, 0
  br i1 %.not16.i, label %ForceZero.exit.i, label %50

50:                                               ; preds = %47
  %51 = getelementptr inbounds nuw i8, ptr %4, i64 8336
  %52 = load i32, ptr %51, align 8, !tbaa !3
  %53 = and i32 %52, -2
  %switch.i = icmp eq i32 %53, 2
  br i1 %switch.i, label %54, label %ForceZero.exit.i

54:                                               ; preds = %50
  %55 = ptrtoint ptr %46 to i64
  %56 = trunc i64 %55 to i32
  %57 = sub i32 0, %56
  %58 = and i32 %57, 7
  %spec.select.i.i = tail call i32 @llvm.umin.i32(i32 %49, i32 %58)
  %59 = sub i32 %49, %spec.select.i.i
  %.not24.i.i = icmp eq i32 %58, 0
  br i1 %.not24.i.i, label %.preheader23.i.i, label %.lr.ph.i.i

.preheader23.i.i:                                 ; preds = %.lr.ph.i.i, %54
  %.016.lcssa.i.i = phi ptr [ %46, %54 ], [ %62, %.lr.ph.i.i ]
  %60 = icmp ugt i32 %59, 7
  br i1 %60, label %.lr.ph29.i.i, label %.preheader.i.i

.lr.ph.i.i:                                       ; preds = %54, %.lr.ph.i.i
  %.126.i.i = phi i32 [ %61, %.lr.ph.i.i ], [ %spec.select.i.i, %54 ]
  %.01625.i.i = phi ptr [ %62, %.lr.ph.i.i ], [ %46, %54 ]
  %61 = add nsw i32 %.126.i.i, -1
  %62 = getelementptr inbounds nuw i8, ptr %.01625.i.i, i64 1
  store volatile i8 0, ptr %.01625.i.i, align 1, !tbaa !20
  %.not.i.i = icmp eq i32 %61, 0
  br i1 %.not.i.i, label %.preheader23.i.i, label %.lr.ph.i.i, !llvm.loop !21

.preheader.i.i:                                   ; preds = %.lr.ph29.i.i, %.preheader23.i.i
  %.018.lcssa.i.i = phi i32 [ %59, %.preheader23.i.i ], [ %64, %.lr.ph29.i.i ]
  %.015.lcssa.i.i = phi ptr [ %.016.lcssa.i.i, %.preheader23.i.i ], [ %63, %.lr.ph29.i.i ]
  %.not2232.i.i = icmp eq i32 %.018.lcssa.i.i, 0
  br i1 %.not2232.i.i, label %ForceZero.exit.i, label %.lr.ph35.i.i

.lr.ph29.i.i:                                     ; preds = %.preheader23.i.i, %.lr.ph29.i.i
  %.01528.i.i = phi ptr [ %63, %.lr.ph29.i.i ], [ %.016.lcssa.i.i, %.preheader23.i.i ]
  %.01827.i.i = phi i32 [ %64, %.lr.ph29.i.i ], [ %59, %.preheader23.i.i ]
  %63 = getelementptr inbounds nuw i8, ptr %.01528.i.i, i64 8
  store volatile i64 0, ptr %.01528.i.i, align 8, !tbaa !23
  %64 = add i32 %.01827.i.i, -8
  %65 = icmp ugt i32 %64, 7
  br i1 %65, label %.lr.ph29.i.i, label %.preheader.i.i, !llvm.loop !25

.lr.ph35.i.i:                                     ; preds = %.preheader.i.i, %.lr.ph35.i.i
  %.11734.i.i = phi ptr [ %67, %.lr.ph35.i.i ], [ %.015.lcssa.i.i, %.preheader.i.i ]
  %.11933.i.i = phi i32 [ %66, %.lr.ph35.i.i ], [ %.018.lcssa.i.i, %.preheader.i.i ]
  %66 = add i32 %.11933.i.i, -1
  %67 = getelementptr inbounds nuw i8, ptr %.11734.i.i, i64 1
  store volatile i8 0, ptr %.11734.i.i, align 1, !tbaa !20
  %.not22.i.i = icmp eq i32 %66, 0
  br i1 %.not22.i.i, label %ForceZero.exit.i, label %.lr.ph35.i.i, !llvm.loop !26

ForceZero.exit.i:                                 ; preds = %.lr.ph35.i.i, %.preheader.i.i, %50, %47, %.thread67
  %68 = getelementptr inbounds nuw i8, ptr %4, i64 8360
  %69 = load i8, ptr %68, align 8, !tbaa !27
  %.not17.i = icmp eq i8 %69, 0
  br i1 %.not17.i, label %wc_RsaCleanup.exit, label %70

70:                                               ; preds = %ForceZero.exit.i
  %71 = load ptr, ptr %45, align 8, !tbaa !16
  %.not18.i = icmp eq ptr %71, null
  br i1 %.not18.i, label %73, label %72

72:                                               ; preds = %70
  tail call void @wolfSSL_Free(ptr noundef nonnull %71) #12
  br label %73

73:                                               ; preds = %72, %70
  store i8 0, ptr %68, align 8, !tbaa !27
  br label %wc_RsaCleanup.exit

wc_RsaCleanup.exit:                               ; preds = %ForceZero.exit.i, %73
  store ptr null, ptr %45, align 8, !tbaa !16
  %74 = getelementptr inbounds nuw i8, ptr %4, i64 8344
  store i32 0, ptr %74, align 8, !tbaa !19
  br label %75

75:                                               ; preds = %.thread, %23, %21, %wc_RsaEncryptSize.exit, %14, %wc_RsaCleanup.exit
  %.0 = phi i32 [ %.05869, %wc_RsaCleanup.exit ], [ -173, %14 ], [ -131, %wc_RsaEncryptSize.exit ], [ -234, %21 ], [ -131, %23 ], [ -108, %.thread ]
  ret i32 %.0
}